target datalayout = "e-m:e-p270:32:32-p271:32:32-p272:64:64-i64:64-i128:128-f80:128-n8:16:32:64-S128"
target triple = "x86_64-unknown-linux-gnu"

%"class.icu_75::BucketList" = type { %"class.icu_75::UObject", ptr, ptr }
%"class.icu_75::UObject" = type { ptr }
%"class.icu_75::AlphabeticIndex::ImmutableIndex" = type { %"class.icu_75::UObject", ptr, ptr }
%"class.icu_75::UVector" = type { %"class.icu_75::UObject", i32, i32, ptr, ptr, ptr }

; Function Attrs: mustprogress nounwind uwtable
define linkonce_odr noundef i32 @_ZNK6icu_757UVector4sizeEv(ptr noundef nonnull align 8 dereferenceable(40) %this) #0 comdat align 2 {
entry:
  %this.addr = alloca ptr, align 8
  store ptr %this, ptr %this.addr, align 8
  %this1 = load ptr, ptr %this.addr, align 8
  %count = getelementptr inbounds %"class.icu_75::UVector", ptr %this1, i32 0, i32 1
  %0 = load i32, ptr %count, align 8
  ret i32 %0
}

; Function Attrs: mustprogress uwtable
define linkonce_odr noundef i32 @_ZNK6icu_7510BucketList14getBucketCountEv(ptr noundef nonnull align 8 dereferenceable(24) %this) #2 comdat align 2 {
entry:
  %this.addr = alloca ptr, align 8
  store ptr %this, ptr %this.addr, align 8
  %this1 = load ptr, ptr %this.addr, align 8
  %immutableVisibleList_ = getelementptr inbounds %"class.icu_75::BucketList", ptr %this1, i32 0, i32 2
  %0 = load ptr, ptr %immutableVisibleList_, align 8
  %call = call noundef i32 @_ZNK6icu_757UVector4sizeEv(ptr noundef nonnull align 8 dereferenceable(40) %0)
  ret i32 %call
}

; Function Attrs: mustprogress uwtable
define noundef i32 @_ZNK6icu_7515AlphabeticIndex14ImmutableIndex14getBucketCountEv(ptr noundef nonnull align 8 dereferenceable(24) %this) #2 align 2 {
entry:
  %this.addr = alloca ptr, align 8
  store ptr %this, ptr %this.addr, align 8
  %this1 = load ptr, ptr %this.addr, align 8
  %buckets_ = getelementptr inbounds %"class.icu_75::AlphabeticIndex::ImmutableIndex", ptr %this1, i32 0, i32 1
  %0 = load ptr, ptr %buckets_, align 8
  %call = call noundef i32 @_ZNK6icu_7510BucketList14getBucketCountEv(ptr noundef nonnull align 8 dereferenceable(24) %0)
  ret i32 %call
}