; Function Attrs: mustprogress nofree norecurse nosync nounwind willreturn memory(read, inaccessiblemem: none) uwtable
define noundef i32 @_ZNK6icu_7515AlphabeticIndex14ImmutableIndex14getBucketCountEv(ptr nocapture noundef nonnull readonly align 8 dereferenceable(24) %this) local_unnamed_addr #2 align 2 {
entry:
  %buckets_ = getelementptr inbounds i8, ptr %this, i64 8
  %0 = load ptr, ptr %buckets_, align 8
  %immutableVisibleList_.i = getelementptr inbounds i8, ptr %0, i64 16
  %1 = load ptr, ptr %immutableVisibleList_.i, align 8
  %count.i.i = getelementptr inbounds i8, ptr %1, i64 8
  %2 = load i32, ptr %count.i.i, align 8
  ret i32 %2
}